Certificate:
    Data:
        Version: 1 (0x0)
        Serial Number: 1 (0x1)
    Signature Algorithm: md5WithRSAEncryption
        Issuer: C=US, ST=Unset, L=Unset, O=Unset, CN=www.example.com
        Validity
            Not Before: Jul  2 11:00:02 2013 GMT
            Not After : Jul  2 11:00:02 2014 GMT
        Subject: C=US, ST=Unset, O=Unset, CN=www.example.com
        Subject Public Key Info:
            Public Key Algorithm: rsaEncryption
                Public-Key: (1024 bit)
                Modulus:
                    00:b9:84:ac:bc:f1:5c:19:66:05:17:94:99:35:fa:
                    e7:22:63:f9:61:85:27:8f:36:08:b9:32:b6:49:d9:
                    88:a3:d7:f2:87:72:fe:90:f3:11:91:71:06:4d:57:
                    57:49:76:ca:8f:2c:63:b3:be:e6:50:f4:5f:96:4f:
                    04:b9:79:9d:c3:cb:7e:63:18:85:a5:05:64:ab:31:
                    ef:d4:49:15:42:e0:38:be:74:c2:07:e8:d1:1a:b6:
                    b8:4d:41:27:d3:1c:e3:63:0c:35:dd:34:eb:3d:14:
                    05:2d:59:9d:57:39:ec:c8:36:ac:10:60:e9:28:8d:
                    17:01:1e:d0:a6:f9:92:7a:9b
                Exponent: 65537 (0x10001)
    Signature Algorithm: md5WithRSAEncryption
         1b:cd:6e:b4:2a:30:e1:14:c9:5a:5a:2d:e0:c8:25:9d:6c:69:
         21:e3:45:45:1b:64:7f:d4:23:79:32:e6:d8:b8:c6:42:53:18:
         e6:05:0b:9c:16:bb:5c:16:96:12:83:7a:97:69:49:75:3b:2b:
         fb:ee:5d:1f:52:13:75:57:15:4e:88:20:be:22:34:31:ef:fa:
         8d:bc:0e:5e:c5:c0:6b:21:31:c9:46:01:08:a6:94:4c:4a:95:
         86:21:44:5c:87:23:81:5a:10:6f:d4:f6:30:ad:1d:dc:a2:37:
         d7:eb:13:3e:1d:2b:28:b4:44:d6:16:f6:42:c2:f0:2e:8b:b2:
         5f:ba
-----BEGIN CERTIFICATE-----
MIICDTCCAXYCAQEwDQYJKoZIhvcNAQEEBQAwVzELMAkGA1UEBhMCVVMxDjAMBgNV
BAgTBVVuc2V0MQ4wDAYDVQQHEwVVbnNldDEOMAwGA1UEChMFVW5zZXQxGDAWBgNV
BAMTD3d3dy5leGFtcGxlLmNvbTAeFw0xMzA3MDIxMTAwMDJaFw0xNDA3MDIxMTAw
MDJaMEcxCzAJBgNVBAYTAlVTMQ4wDAYDVQQIEwVVbnNldDEOMAwGA1UEChMFVW5z
ZXQxGDAWBgNVBAMTD3d3dy5leGFtcGxlLmNvbTCBnzANBgkqhkiG9w0BAQEFAAOB
jQAwgYkCgYEAuYSsvPFcGWYFF5SZNfrnImP5YYUnjzYIuTK2SdmIo9fyh3L+kPMR
kXEGTVdXSXbKjyxjs77mUPRflk8EuXmdw8t+YxiFpQVkqzHv1EkVQuA4vnTCB+jR
Gra4TUEn0xzjYww13TTrPRQFLVmdVznsyDasEGDpKI0XAR7QpvmSepsCAwEAATAN
BgkqhkiG9w0BAQQFAAOBgQAbzW60KjDhFMlaWi3gyCWdbGkh40VFG2R/1CN5MubY
uMZCUxjmBQucFrtcFpYSg3qXaUl1Oyv77l0fUhN1VxVOiCC+IjQx7/qNvA5excBr
ITHJRgEIppRMSpWGIURchyOBWhBv1PYwrR3cojfX6xM+HSsotETWFvZCwvAui7Jf
ug==
-----END CERTIFICATE-----
